; Function Attrs: nounwind uwtable
define noalias noundef nonnull ptr @l_List_forIn_x27_loop___at___private_Lean_Elab_Extra_0__Lean_Elab_Term_Op_hasHeterogeneousDefaultInstances___spec__2___lambda__1(i8 noundef zeroext %0, ptr noundef %1, ptr noundef %2, ptr noundef %3, ptr readnone captures(none) %4, ptr readnone captures(none) %5, ptr readnone captures(none) %6, ptr readnone captures(none) %7, ptr readnone captures(none) %8, ptr noundef %9) local_unnamed_addr #0 {
  %11 = icmp eq i8 %0, 0
  br i1 %11, label %12, label %38

12:                                               ; preds = %10
  %13 = tail call zeroext i8 @l_Lean_Expr_isAppOf(ptr noundef %1, ptr noundef %2) #7
  %14 = icmp eq i8 %13, 0
  br i1 %14, label %15, label %24

15:                                               ; preds = %12
  tail call void @lean_inc_heartbeat() #7
  %16 = tail call noalias ptr @mi_malloc_small(i64 noundef 16) #7
  %17 = icmp eq ptr %16, null
  br i1 %17, label %18, label %lean_alloc_ctor.exit

18:                                               ; preds = %15
  tail call void @lean_internal_panic_out_of_memory() #8
  unreachable

lean_alloc_ctor.exit:                             ; preds = %15
  %19 = getelementptr inbounds nuw i8, ptr %16, i64 4
  store i32 1, ptr %16, align 4, !tbaa !8
  store i32 16842768, ptr %19, align 4
  %20 = getelementptr inbounds nuw i8, ptr %16, i64 8
  store ptr %3, ptr %20, align 8, !tbaa !4
  tail call void @lean_inc_heartbeat() #7
  %21 = tail call noalias ptr @mi_malloc_small(i64 noundef 24) #7
  %22 = icmp eq ptr %21, null
  br i1 %22, label %23, label %lean_alloc_ctor.exit24

23:                                               ; preds = %lean_alloc_ctor.exit
  tail call void @lean_internal_panic_out_of_memory() #8
  unreachable

24:                                               ; preds = %12
  %25 = ptrtoint ptr %3 to i64
  %26 = and i64 %25, 1
  %.not = icmp eq i64 %26, 0
  br i1 %.not, label %27, label %lean_dec.exit

27:                                               ; preds = %24
  %28 = load i32, ptr %3, align 4, !tbaa !8
  %29 = icmp sgt i32 %28, 1
  br i1 %29, label %30, label %32, !prof !11

30:                                               ; preds = %27
  %31 = add nsw i32 %28, -1
  store i32 %31, ptr %3, align 4, !tbaa !8
  br label %lean_dec.exit

32:                                               ; preds = %27
  %.not.i = icmp eq i32 %28, 0
  br i1 %.not.i, label %lean_dec.exit, label %33

33:                                               ; preds = %32
  tail call void @lean_dec_ref_cold(ptr noundef nonnull %3) #7
  br label %lean_dec.exit

lean_dec.exit:                                    ; preds = %33, %32, %30, %24
  %34 = load ptr, ptr @l_List_forIn_x27_loop___at___private_Lean_Elab_Extra_0__Lean_Elab_Term_Op_hasHeterogeneousDefaultInstances___spec__2___lambda__1___closed__3, align 8, !tbaa !4
  tail call void @lean_inc_heartbeat() #7
  %35 = tail call noalias ptr @mi_malloc_small(i64 noundef 24) #7
  %36 = icmp eq ptr %35, null
  br i1 %36, label %37, label %lean_alloc_ctor.exit24

37:                                               ; preds = %lean_dec.exit
  tail call void @lean_internal_panic_out_of_memory() #8
  unreachable

38:                                               ; preds = %10
  tail call void @lean_inc_heartbeat() #7
  %39 = tail call noalias ptr @mi_malloc_small(i64 noundef 16) #7
  %40 = icmp eq ptr %39, null
  br i1 %40, label %41, label %lean_alloc_ctor.exit26

41:                                               ; preds = %38
  tail call void @lean_internal_panic_out_of_memory() #8
  unreachable

lean_alloc_ctor.exit26:                           ; preds = %38
  %42 = getelementptr inbounds nuw i8, ptr %39, i64 4
  store i32 1, ptr %39, align 4, !tbaa !8
  store i32 16842768, ptr %42, align 4
  %43 = getelementptr inbounds nuw i8, ptr %39, i64 8
  store ptr %3, ptr %43, align 8, !tbaa !4
  tail call void @lean_inc_heartbeat() #7
  %44 = tail call noalias ptr @mi_malloc_small(i64 noundef 24) #7
  %45 = icmp eq ptr %44, null
  br i1 %45, label %46, label %lean_alloc_ctor.exit24

46:                                               ; preds = %lean_alloc_ctor.exit26
  tail call void @lean_internal_panic_out_of_memory() #8
  unreachable

lean_alloc_ctor.exit24:                           ; preds = %lean_alloc_ctor.exit26, %lean_dec.exit, %lean_alloc_ctor.exit
  %.sink33 = phi ptr [ %21, %lean_alloc_ctor.exit ], [ %35, %lean_dec.exit ], [ %44, %lean_alloc_ctor.exit26 ]
  %.sink = phi ptr [ %16, %lean_alloc_ctor.exit ], [ %34, %lean_dec.exit ], [ %39, %lean_alloc_ctor.exit26 ]
  %47 = getelementptr inbounds nuw i8, ptr %.sink33, i64 4
  store i32 1, ptr %.sink33, align 4, !tbaa !8
  store i32 131096, ptr %47, align 4
  %48 = getelementptr inbounds nuw i8, ptr %.sink33, i64 8
  store ptr %.sink, ptr %48, align 8, !tbaa !4
  %49 = getelementptr inbounds nuw i8, ptr %.sink33, i64 16
  store ptr %9, ptr %49, align 8, !tbaa !4
  ret ptr %.sink33
}